target datalayout = "e-m:e-p270:32:32-p271:32:32-p272:64:64-i64:64-i128:128-f80:128-n8:16:32:64-S128"
target triple = "x86_64-pc-linux-gnu"

%struct.Abc_TtStore_t_ = type { i32, i32, i32, ptr }

@.str.4 = private unnamed_addr constant [3 x i8] c"wb\00", align 1
@.str.5 = private unnamed_addr constant [36 x i8] c"Cannot open file \22%s\22 for writing.\0A\00", align 1
@.str.6 = private unnamed_addr constant [5 x i8] c"    \00", align 1
@.str.7 = private unnamed_addr constant [4 x i8] c"%s\0A\00", align 1
@.str.9 = private unnamed_addr constant [13 x i8] c"_binary.data\00", align 1
@.str.10 = private unnamed_addr constant [51 x i8] c"Input file \22%s\22 was copied into output file \22%s\22.\0A\00", align 1
@.str.29 = private unnamed_addr constant [3 x i8] c"%d\00", align 1
@.str.30 = private unnamed_addr constant [3 x i8] c"%c\00", align 1

; Function Attrs: inlinehint nounwind uwtable
define internal void @Abc_TruthWriteHexDigit(ptr noundef %0, i32 noundef %1) #2 {
  %3 = alloca ptr, align 8
  %4 = alloca i32, align 4
  store ptr %0, ptr %3, align 8, !tbaa !17
  store i32 %1, ptr %4, align 4, !tbaa !10
  %5 = load i32, ptr %4, align 4, !tbaa !10
  %6 = icmp slt i32 %5, 10
  br i1 %6, label %7, label %11

7:                                                ; preds = %2
  %8 = load ptr, ptr %3, align 8, !tbaa !17
  %9 = load i32, ptr %4, align 4, !tbaa !10
  %10 = call i32 (ptr, ptr, ...) @fprintf(ptr noundef %8, ptr noundef @.str.29, i32 noundef %9) #12
  br label %17

11:                                               ; preds = %2
  %12 = load ptr, ptr %3, align 8, !tbaa !17
  %13 = load i32, ptr %4, align 4, !tbaa !10
  %14 = add nsw i32 65, %13
  %15 = sub nsw i32 %14, 10
  %16 = call i32 (ptr, ptr, ...) @fprintf(ptr noundef %12, ptr noundef @.str.30, i32 noundef %15) #12
  br label %17

17:                                               ; preds = %11, %7
  ret void
}

; Function Attrs: inlinehint nounwind uwtable
define internal i32 @Abc_TruthGetHex(ptr noundef %0, i32 noundef %1) #2 {
  %3 = alloca ptr, align 8
  %4 = alloca i32, align 4
  store ptr %0, ptr %3, align 8, !tbaa !3
  store i32 %1, ptr %4, align 4, !tbaa !10
  %5 = load ptr, ptr %3, align 8, !tbaa !3
  %6 = load i32, ptr %4, align 4, !tbaa !10
  %7 = ashr i32 %6, 4
  %8 = sext i32 %7 to i64
  %9 = getelementptr inbounds i64, ptr %5, i64 %8
  %10 = load i64, ptr %9, align 8, !tbaa !15
  %11 = load i32, ptr %4, align 4, !tbaa !10
  %12 = shl i32 %11, 2
  %13 = and i32 %12, 63
  %14 = zext i32 %13 to i64
  %15 = lshr i64 %10, %14
  %16 = trunc i64 %15 to i32
  %17 = and i32 %16, 15
  ret i32 %17
}

; Function Attrs: nounwind uwtable
define void @Abc_TruthWriteHex(ptr noundef %0, ptr noundef %1, i32 noundef %2) #0 {
  %4 = alloca ptr, align 8
  %5 = alloca ptr, align 8
  %6 = alloca i32, align 4
  %7 = alloca i32, align 4
  %8 = alloca i32, align 4
  %9 = alloca i32, align 4
  store ptr %0, ptr %4, align 8, !tbaa !17
  store ptr %1, ptr %5, align 8, !tbaa !3
  store i32 %2, ptr %6, align 4, !tbaa !10
  call void @llvm.lifetime.start.p0(i64 4, ptr %7) #12
  call void @llvm.lifetime.start.p0(i64 4, ptr %8) #12
  call void @llvm.lifetime.start.p0(i64 4, ptr %9) #12
  %10 = load i32, ptr %6, align 4, !tbaa !10
  %11 = sub nsw i32 %10, 2
  %12 = shl i32 1, %11
  store i32 %12, ptr %7, align 4, !tbaa !10
  store i32 0, ptr %9, align 4, !tbaa !10
  br label %13

13:                                               ; preds = %23, %3
  %14 = load i32, ptr %9, align 4, !tbaa !10
  %15 = load i32, ptr %7, align 4, !tbaa !10
  %16 = icmp slt i32 %14, %15
  br i1 %16, label %17, label %26

17:                                               ; preds = %13
  %18 = load ptr, ptr %5, align 8, !tbaa !3
  %19 = load i32, ptr %9, align 4, !tbaa !10
  %20 = call i32 @Abc_TruthGetHex(ptr noundef %18, i32 noundef %19)
  store i32 %20, ptr %8, align 4, !tbaa !10
  %21 = load ptr, ptr %4, align 8, !tbaa !17
  %22 = load i32, ptr %8, align 4, !tbaa !10
  call void @Abc_TruthWriteHexDigit(ptr noundef %21, i32 noundef %22)
  br label %23

23:                                               ; preds = %17
  %24 = load i32, ptr %9, align 4, !tbaa !10
  %25 = add nsw i32 %24, 1
  store i32 %25, ptr %9, align 4, !tbaa !10
  br label %13, !llvm.loop !19

26:                                               ; preds = %13
  call void @llvm.lifetime.end.p0(i64 4, ptr %9) #12
  call void @llvm.lifetime.end.p0(i64 4, ptr %8) #12
  call void @llvm.lifetime.end.p0(i64 4, ptr %7) #12
  ret void
}

; Function Attrs: inlinehint nounwind uwtable
define internal i32 @Abc_Truth6WordNum(i32 noundef %0) #2 {
  %2 = alloca i32, align 4
  store i32 %0, ptr %2, align 4, !tbaa !10
  %3 = load i32, ptr %2, align 4, !tbaa !10
  %4 = icmp sle i32 %3, 6
  br i1 %4, label %5, label %6

5:                                                ; preds = %1
  br label %10

6:                                                ; preds = %1
  %7 = load i32, ptr %2, align 4, !tbaa !10
  %8 = sub nsw i32 %7, 6
  %9 = shl i32 1, %8
  br label %10

10:                                               ; preds = %6, %5
  %11 = phi i32 [ 1, %5 ], [ %9, %6 ]
  ret i32 %11
}

; Function Attrs: nounwind uwtable
define void @Abc_TtStoreFree(ptr noundef %0, i32 noundef %1) #0 {
  %3 = alloca ptr, align 8
  %4 = alloca i32, align 4
  store ptr %0, ptr %3, align 8, !tbaa !20
  store i32 %1, ptr %4, align 4, !tbaa !10
  %5 = load i32, ptr %4, align 4, !tbaa !10
  %6 = icmp sge i32 %5, 0
  br i1 %6, label %7, label %26

7:                                                ; preds = %2
  %8 = load ptr, ptr %3, align 8, !tbaa !20
  %9 = getelementptr inbounds nuw %struct.Abc_TtStore_t_, ptr %8, i32 0, i32 3
  %10 = load ptr, ptr %9, align 8, !tbaa !27
  %11 = getelementptr inbounds ptr, ptr %10, i64 0
  %12 = load ptr, ptr %11, align 8, !tbaa !3
  %13 = icmp ne ptr %12, null
  br i1 %13, label %14, label %24

14:                                               ; preds = %7
  %15 = load ptr, ptr %3, align 8, !tbaa !20
  %16 = getelementptr inbounds nuw %struct.Abc_TtStore_t_, ptr %15, i32 0, i32 3
  %17 = load ptr, ptr %16, align 8, !tbaa !27
  %18 = getelementptr inbounds ptr, ptr %17, i64 0
  %19 = load ptr, ptr %18, align 8, !tbaa !3
  call void @free(ptr noundef %19) #12
  %20 = load ptr, ptr %3, align 8, !tbaa !20
  %21 = getelementptr inbounds nuw %struct.Abc_TtStore_t_, ptr %20, i32 0, i32 3
  %22 = load ptr, ptr %21, align 8, !tbaa !27
  %23 = getelementptr inbounds ptr, ptr %22, i64 0
  store ptr null, ptr %23, align 8, !tbaa !3
  br label %25

24:                                               ; preds = %7
  br label %25

25:                                               ; preds = %24, %14
  br label %26

26:                                               ; preds = %25, %2
  %27 = load ptr, ptr %3, align 8, !tbaa !20
  %28 = getelementptr inbounds nuw %struct.Abc_TtStore_t_, ptr %27, i32 0, i32 3
  %29 = load ptr, ptr %28, align 8, !tbaa !27
  %30 = icmp ne ptr %29, null
  br i1 %30, label %31, label %37

31:                                               ; preds = %26
  %32 = load ptr, ptr %3, align 8, !tbaa !20
  %33 = getelementptr inbounds nuw %struct.Abc_TtStore_t_, ptr %32, i32 0, i32 3
  %34 = load ptr, ptr %33, align 8, !tbaa !27
  call void @free(ptr noundef %34) #12
  %35 = load ptr, ptr %3, align 8, !tbaa !20
  %36 = getelementptr inbounds nuw %struct.Abc_TtStore_t_, ptr %35, i32 0, i32 3
  store ptr null, ptr %36, align 8, !tbaa !27
  br label %38

37:                                               ; preds = %26
  br label %38

38:                                               ; preds = %37, %31
  %39 = load ptr, ptr %3, align 8, !tbaa !20
  %40 = icmp ne ptr %39, null
  br i1 %40, label %41, label %43

41:                                               ; preds = %38
  %42 = load ptr, ptr %3, align 8, !tbaa !20
  call void @free(ptr noundef %42) #12
  store ptr null, ptr %3, align 8, !tbaa !20
  br label %44

43:                                               ; preds = %38
  br label %44

44:                                               ; preds = %43, %41
  ret void
}

; Function Attrs: nounwind uwtable
define void @Abc_TtStoreWrite(ptr noundef %0, ptr noundef %1, i32 noundef %2) #0 {
  %4 = alloca ptr, align 8
  %5 = alloca ptr, align 8
  %6 = alloca i32, align 4
  %7 = alloca ptr, align 8
  %8 = alloca [1000 x i8], align 16
  %9 = alloca i32, align 4
  %10 = alloca i32, align 4
  %11 = alloca i32, align 4
  store ptr %0, ptr %4, align 8, !tbaa !8
  store ptr %1, ptr %5, align 8, !tbaa !20
  store i32 %2, ptr %6, align 4, !tbaa !10
  call void @llvm.lifetime.start.p0(i64 8, ptr %7) #12
  call void @llvm.lifetime.start.p0(i64 1000, ptr %8) #12
  call void @llvm.lifetime.start.p0(i64 4, ptr %9) #12
  call void @llvm.lifetime.start.p0(i64 4, ptr %10) #12
  %12 = load ptr, ptr %5, align 8, !tbaa !20
  %13 = getelementptr inbounds nuw %struct.Abc_TtStore_t_, ptr %12, i32 0, i32 0
  %14 = load i32, ptr %13, align 8, !tbaa !22
  %15 = call i32 @Abc_Truth6WordNum(i32 noundef %14)
  %16 = mul nsw i32 8, %15
  store i32 %16, ptr %10, align 4, !tbaa !10
  %17 = load ptr, ptr %4, align 8, !tbaa !8
  %18 = call noalias ptr @fopen(ptr noundef %17, ptr noundef @.str.4)
  store ptr %18, ptr %7, align 8, !tbaa !17
  %19 = load ptr, ptr %7, align 8, !tbaa !17
  %20 = icmp eq ptr %19, null
  br i1 %20, label %21, label %24

21:                                               ; preds = %3
  %22 = load ptr, ptr %4, align 8, !tbaa !8
  %23 = call i32 (ptr, ...) @printf(ptr noundef @.str.5, ptr noundef %22)
  store i32 1, ptr %11, align 4
  br label %87

24:                                               ; preds = %3
  store i32 0, ptr %9, align 4, !tbaa !10
  br label %25

25:                                               ; preds = %81, %24
  %26 = load i32, ptr %9, align 4, !tbaa !10
  %27 = load ptr, ptr %5, align 8, !tbaa !20
  %28 = getelementptr inbounds nuw %struct.Abc_TtStore_t_, ptr %27, i32 0, i32 2
  %29 = load i32, ptr %28, align 8, !tbaa !26
  %30 = icmp slt i32 %26, %29
  br i1 %30, label %31, label %84

31:                                               ; preds = %25
  %32 = load i32, ptr %6, align 4, !tbaa !10
  %33 = icmp ne i32 %32, 0
  br i1 %33, label %34, label %46

34:                                               ; preds = %31
  %35 = load ptr, ptr %5, align 8, !tbaa !20
  %36 = getelementptr inbounds nuw %struct.Abc_TtStore_t_, ptr %35, i32 0, i32 3
  %37 = load ptr, ptr %36, align 8, !tbaa !27
  %38 = load i32, ptr %9, align 4, !tbaa !10
  %39 = sext i32 %38 to i64
  %40 = getelementptr inbounds ptr, ptr %37, i64 %39
  %41 = load ptr, ptr %40, align 8, !tbaa !3
  %42 = load i32, ptr %10, align 4, !tbaa !10
  %43 = sext i32 %42 to i64
  %44 = load ptr, ptr %7, align 8, !tbaa !17
  %45 = call i64 @fwrite(ptr noundef %41, i64 noundef %43, i64 noundef 1, ptr noundef %44)
  br label %80

46:                                               ; preds = %31
  %47 = load ptr, ptr %7, align 8, !tbaa !17
  %48 = load ptr, ptr %5, align 8, !tbaa !20
  %49 = getelementptr inbounds nuw %struct.Abc_TtStore_t_, ptr %48, i32 0, i32 3
  %50 = load ptr, ptr %49, align 8, !tbaa !27
  %51 = load i32, ptr %9, align 4, !tbaa !10
  %52 = sext i32 %51 to i64
  %53 = getelementptr inbounds ptr, ptr %50, i64 %52
  %54 = load ptr, ptr %53, align 8, !tbaa !3
  %55 = load ptr, ptr %5, align 8, !tbaa !20
  %56 = getelementptr inbounds nuw %struct.Abc_TtStore_t_, ptr %55, i32 0, i32 0
  %57 = load i32, ptr %56, align 8, !tbaa !22
  call void @Abc_TruthWriteHex(ptr noundef %47, ptr noundef %54, i32 noundef %57)
  %58 = load ptr, ptr %7, align 8, !tbaa !17
  %59 = call i32 (ptr, ptr, ...) @fprintf(ptr noundef %58, ptr noundef @.str.6) #12
  %60 = load ptr, ptr %5, align 8, !tbaa !20
  %61 = getelementptr inbounds nuw %struct.Abc_TtStore_t_, ptr %60, i32 0, i32 3
  %62 = load ptr, ptr %61, align 8, !tbaa !27
  %63 = load i32, ptr %9, align 4, !tbaa !10
  %64 = sext i32 %63 to i64
  %65 = getelementptr inbounds ptr, ptr %62, i64 %64
  %66 = load ptr, ptr %65, align 8, !tbaa !3
  %67 = load ptr, ptr %5, align 8, !tbaa !20
  %68 = getelementptr inbounds nuw %struct.Abc_TtStore_t_, ptr %67, i32 0, i32 0
  %69 = load i32, ptr %68, align 8, !tbaa !22
  %70 = load ptr, ptr %5, align 8, !tbaa !20
  %71 = getelementptr inbounds nuw %struct.Abc_TtStore_t_, ptr %70, i32 0, i32 0
  %72 = load i32, ptr %71, align 8, !tbaa !22
  %73 = icmp sle i32 %72, 10
  %74 = zext i1 %73 to i32
  %75 = getelementptr inbounds [1000 x i8], ptr %8, i64 0, i64 0
  %76 = call i32 @Dau_DsdDecompose(ptr noundef %66, i32 noundef %69, i32 noundef 0, i32 noundef %74, ptr noundef %75)
  %77 = load ptr, ptr %7, align 8, !tbaa !17
  %78 = getelementptr inbounds [1000 x i8], ptr %8, i64 0, i64 0
  %79 = call i32 (ptr, ptr, ...) @fprintf(ptr noundef %77, ptr noundef @.str.7, ptr noundef %78) #12
  br label %80

80:                                               ; preds = %46, %34
  br label %81

81:                                               ; preds = %80
  %82 = load i32, ptr %9, align 4, !tbaa !10
  %83 = add nsw i32 %82, 1
  store i32 %83, ptr %9, align 4, !tbaa !10
  br label %25, !llvm.loop !37

84:                                               ; preds = %25
  %85 = load ptr, ptr %7, align 8, !tbaa !17
  %86 = call i32 @fclose(ptr noundef %85)
  store i32 0, ptr %11, align 4
  br label %87

87:                                               ; preds = %84, %21
  call void @llvm.lifetime.end.p0(i64 4, ptr %10) #12
  call void @llvm.lifetime.end.p0(i64 4, ptr %9) #12
  call void @llvm.lifetime.end.p0(i64 1000, ptr %8) #12
  call void @llvm.lifetime.end.p0(i64 8, ptr %7) #12
  %88 = load i32, ptr %11, align 4
  switch i32 %88, label %90 [
    i32 0, label %89
    i32 1, label %89
  ]

89:                                               ; preds = %87, %87
  ret void

90:                                               ; preds = %87
  unreachable
}

; Function Attrs: nounwind uwtable
define void @Abc_TtStoreLoadSave(ptr noundef %0) #0 {
  %2 = alloca ptr, align 8
  %3 = alloca ptr, align 8
  %4 = alloca ptr, align 8
  %5 = alloca ptr, align 8
  %6 = alloca i32, align 4
  store ptr %0, ptr %2, align 8, !tbaa !8
  call void @llvm.lifetime.start.p0(i64 8, ptr %3) #12
  call void @llvm.lifetime.start.p0(i64 8, ptr %4) #12
  %7 = load ptr, ptr %2, align 8, !tbaa !8
  store ptr %7, ptr %4, align 8, !tbaa !8
  call void @llvm.lifetime.start.p0(i64 8, ptr %5) #12
  %8 = load ptr, ptr %2, align 8, !tbaa !8
  %9 = call ptr @Extra_FileNameGenericAppend(ptr noundef %8, ptr noundef @.str.9)
  store ptr %9, ptr %5, align 8, !tbaa !8
  %10 = load ptr, ptr %4, align 8, !tbaa !8
  %11 = call ptr @Abc_TtStoreLoad(ptr noundef %10, i32 noundef -1)
  store ptr %11, ptr %3, align 8, !tbaa !20
  %12 = load ptr, ptr %3, align 8, !tbaa !20
  %13 = icmp eq ptr %12, null
  br i1 %13, label %14, label %15

14:                                               ; preds = %1
  store i32 1, ptr %6, align 4
  br label %22

15:                                               ; preds = %1
  %16 = load ptr, ptr %5, align 8, !tbaa !8
  %17 = load ptr, ptr %3, align 8, !tbaa !20
  call void @Abc_TtStoreWrite(ptr noundef %16, ptr noundef %17, i32 noundef 1)
  %18 = load ptr, ptr %3, align 8, !tbaa !20
  call void @Abc_TtStoreFree(ptr noundef %18, i32 noundef -1)
  %19 = load ptr, ptr %4, align 8, !tbaa !8
  %20 = load ptr, ptr %5, align 8, !tbaa !8
  %21 = call i32 (ptr, ...) @printf(ptr noundef @.str.10, ptr noundef %19, ptr noundef %20)
  store i32 0, ptr %6, align 4
  br label %22

22:                                               ; preds = %15, %14
  call void @llvm.lifetime.end.p0(i64 8, ptr %5) #12
  call void @llvm.lifetime.end.p0(i64 8, ptr %4) #12
  call void @llvm.lifetime.end.p0(i64 8, ptr %3) #12
  %23 = load i32, ptr %6, align 4
  switch i32 %23, label %25 [
    i32 0, label %24
    i32 1, label %24
  ]

24:                                               ; preds = %22, %22
  ret void

25:                                               ; preds = %22
  unreachable
}