; Function Attrs: nounwind uwtable
define void @Abc_TtStoreLoadSave(ptr noundef %0) local_unnamed_addr #9 {
  %2 = tail call ptr @Extra_FileNameGenericAppend(ptr noundef %0, ptr noundef nonnull @.str.9) #21
  %3 = tail call ptr @Abc_TtStoreLoad(ptr noundef %0, i32 noundef -1)
  %4 = icmp eq ptr %3, null
  br i1 %4, label %29, label %5

5:                                                ; preds = %1
  %6 = load i32, ptr %3, align 8, !tbaa !11
  %7 = icmp slt i32 %6, 7
  %8 = add nsw i32 %6, -6
  %9 = shl i32 8, %8
  %10 = select i1 %7, i32 8, i32 %9
  %11 = tail call noalias ptr @fopen(ptr noundef %2, ptr noundef nonnull @.str.4)
  %12 = icmp eq ptr %11, null
  br i1 %12, label %20, label %.preheader.i

.preheader.i:                                     ; preds = %5
  %13 = getelementptr inbounds nuw i8, ptr %3, i64 8
  %14 = load i32, ptr %13, align 8, !tbaa !17
  %15 = icmp sgt i32 %14, 0
  br i1 %15, label %.lr.ph.i, label %._crit_edge.i

.lr.ph.i:                                         ; preds = %.preheader.i
  %16 = getelementptr inbounds nuw i8, ptr %3, i64 16
  %17 = sext i32 %10 to i64
  %18 = load ptr, ptr %16, align 8, !tbaa !18
  %19 = zext nneg i32 %14 to i64
  br label %.lr.ph.split.i

20:                                               ; preds = %5
  %21 = tail call i32 (ptr, ...) @printf(ptr noundef nonnull dereferenceable(1) @.str.5, ptr noundef %2)
  br label %Abc_TtStoreWrite.exit

.lr.ph.split.i:                                   ; preds = %.lr.ph.split.i, %.lr.ph.i
  %indvars.iv.i = phi i64 [ %indvars.iv.next.i, %.lr.ph.split.i ], [ 0, %.lr.ph.i ]
  %22 = getelementptr inbounds nuw ptr, ptr %18, i64 %indvars.iv.i
  %23 = load ptr, ptr %22, align 8, !tbaa !19
  %24 = tail call i64 @fwrite(ptr noundef %23, i64 noundef %17, i64 noundef 1, ptr noundef nonnull %11)
  %indvars.iv.next.i = add nuw nsw i64 %indvars.iv.i, 1
  %exitcond.not = icmp eq i64 %indvars.iv.next.i, %19
  br i1 %exitcond.not, label %._crit_edge.i, label %.lr.ph.split.i, !llvm.loop !29

._crit_edge.i:                                    ; preds = %.lr.ph.split.i, %.preheader.i
  %25 = tail call i32 @fclose(ptr noundef nonnull %11)
  br label %Abc_TtStoreWrite.exit

Abc_TtStoreWrite.exit:                            ; preds = %20, %._crit_edge.i
  %26 = getelementptr inbounds nuw i8, ptr %3, i64 16
  %27 = load ptr, ptr %26, align 8, !tbaa !18
  %.not10.i = icmp eq ptr %27, null
  br i1 %.not10.i, label %Abc_TtStoreFree.exit, label %.thread.i

.thread.i:                                        ; preds = %Abc_TtStoreWrite.exit
  tail call void @free(ptr noundef nonnull %27) #21
  br label %Abc_TtStoreFree.exit

Abc_TtStoreFree.exit:                             ; preds = %Abc_TtStoreWrite.exit, %.thread.i
  tail call void @free(ptr noundef nonnull %3) #21
  %28 = tail call i32 (ptr, ...) @printf(ptr noundef nonnull dereferenceable(1) @.str.10, ptr noundef %0, ptr noundef %2)
  br label %29

29:                                               ; preds = %1, %Abc_TtStoreFree.exit
  ret void
}